target datalayout = "e-m:e-p270:32:32-p271:32:32-p272:64:64-i64:64-i128:128-f80:128-n8:16:32:64-S128"
target triple = "x86_64-pc-linux-gnu"

%class.QString = type { %struct.QArrayDataPointer }
%struct.QArrayDataPointer = type { ptr, ptr, i64 }
%struct.QMetaObject = type { %"struct.QMetaObject::Data" }
%"struct.QMetaObject::Data" = type { %"struct.QMetaObject::SuperData", ptr, ptr, ptr, ptr, ptr, ptr }
%"struct.QMetaObject::SuperData" = type { ptr }
%class.DisplayFilterEdit = type { %class.SyntaxLineEdit.base, i32, %class.QString, ptr, ptr, ptr, ptr, ptr, ptr, i8, %class.QString, %class.QString, i8, %class.QString }
%class.SyntaxLineEdit.base = type <{ %class.QLineEdit, ptr, ptr, i32, [4 x i8], %class.QString, %class.QString, %class.QString, %class.QString, %class.QString, i8 }>
%class.QLineEdit = type { %class.QWidget }
%class.QWidget = type { %class.QObject, %class.QPaintDevice.base, ptr }
%class.QObject = type { ptr, %class.QScopedPointer }
%class.QScopedPointer = type { ptr }
%class.QPaintDevice.base = type <{ ptr, i16 }>
%class.QVariant = type { %"struct.QVariant::Private" }
%"struct.QVariant::Private" = type { %union.anon, i64 }
%union.anon = type { ptr, [16 x i8] }
%class.QFlags = type { i32 }
%class.QBasicAtomicInteger = type { %"struct.std::atomic" }
%"struct.std::atomic" = type { %"struct.std::__atomic_base" }
%"struct.std::__atomic_base" = type { i32 }
%class.QFlag = type { i32 }
%struct.QArrayData = type { %class.QBasicAtomicInteger, %class.QFlags.29, i64 }
%class.QFlags.29 = type { i32 }

@.str.25 = private unnamed_addr constant [15 x i8] c"display_filter\00", align 1
@_ZN7QAction16staticMetaObjectE = external global %struct.QMetaObject, align 8

; Function Attrs: mustprogress nounwind uwtable
define linkonce_odr noundef i32 @_ZNSt13__atomic_baseIiEmmEv(ptr noundef nonnull align 4 dereferenceable(4) %0) #2 comdat align 2 {
  %2 = alloca ptr, align 8
  %3 = alloca i32, align 4
  %4 = alloca i32, align 4
  store ptr %0, ptr %2, align 8
  %5 = load ptr, ptr %2, align 8
  %6 = getelementptr inbounds %"struct.std::__atomic_base", ptr %5, i32 0, i32 0
  store i32 1, ptr %3, align 4
  %7 = load i32, ptr %3, align 4
  %8 = atomicrmw sub ptr %6, i32 %7 seq_cst, align 4
  %9 = sub i32 %8, %7
  store i32 %9, ptr %4, align 4
  %10 = load i32, ptr %4, align 4
  ret i32 %10
}

; Function Attrs: mustprogress nounwind uwtable
define linkonce_odr noundef zeroext i1 @_ZN10QAtomicOpsIiE5derefIiEEbRSt6atomicIT_E(ptr noundef nonnull align 4 dereferenceable(4) %0) #2 comdat align 2 {
  %2 = alloca ptr, align 8
  store ptr %0, ptr %2, align 8
  %3 = load ptr, ptr %2, align 8
  %4 = call noundef i32 @_ZNSt13__atomic_baseIiEmmEv(ptr noundef nonnull align 4 dereferenceable(4) %3) #3
  %5 = icmp ne i32 %4, 0
  ret i1 %5
}

; Function Attrs: mustprogress nounwind uwtable
define linkonce_odr noundef zeroext i1 @_ZN19QBasicAtomicIntegerIiE5derefEv(ptr noundef nonnull align 4 dereferenceable(4) %0) #2 comdat align 2 {
  %2 = alloca ptr, align 8
  store ptr %0, ptr %2, align 8
  %3 = load ptr, ptr %2, align 8
  %4 = getelementptr inbounds %class.QBasicAtomicInteger, ptr %3, i32 0, i32 0
  %5 = call noundef zeroext i1 @_ZN10QAtomicOpsIiE5derefIiEEbRSt6atomicIT_E(ptr noundef nonnull align 4 dereferenceable(4) %4) #3
  ret i1 %5
}

; Function Attrs: mustprogress nounwind uwtable
define linkonce_odr noundef zeroext i1 @_ZN10QArrayData5derefEv(ptr noundef nonnull align 8 dereferenceable(16) %0) #2 comdat align 2 {
  %2 = alloca ptr, align 8
  store ptr %0, ptr %2, align 8
  %3 = load ptr, ptr %2, align 8
  %4 = getelementptr inbounds %struct.QArrayData, ptr %3, i32 0, i32 0
  %5 = call noundef zeroext i1 @_ZN19QBasicAtomicIntegerIiE5derefEv(ptr noundef nonnull align 4 dereferenceable(4) %4) #3
  ret i1 %5
}

; Function Attrs: mustprogress nounwind uwtable
define linkonce_odr noundef i32 @_ZNK5QFlagcvjEv(ptr noundef nonnull align 4 dereferenceable(4) %0) #2 comdat align 2 {
  %2 = alloca ptr, align 8
  store ptr %0, ptr %2, align 8
  %3 = load ptr, ptr %2, align 8
  %4 = getelementptr inbounds %class.QFlag, ptr %3, i32 0, i32 0
  %5 = load i32, ptr %4, align 4
  ret i32 %5
}

; Function Attrs: mustprogress nounwind uwtable
define linkonce_odr void @_ZN15QTypedArrayDataIDsE10deallocateEP10QArrayData(ptr noundef %0) #2 comdat align 2 {
  %2 = alloca ptr, align 8
  store ptr %0, ptr %2, align 8
  %3 = load ptr, ptr %2, align 8
  call void @_ZN10QArrayData10deallocateEPS_xx(ptr noundef %3, i64 noundef 2, i64 noundef 8) #3
  ret void
}

; Function Attrs: mustprogress nounwind uwtable
define linkonce_odr void @_ZN9QtPrivate12QPodArrayOpsIDsE10destroyAllEv(ptr noundef nonnull align 8 dereferenceable(24) %0) #2 comdat align 2 {
  %2 = alloca ptr, align 8
  store ptr %0, ptr %2, align 8
  ret void
}

; Function Attrs: mustprogress nounwind uwtable
define linkonce_odr noundef ptr @_ZN17QArrayDataPointerIDsEptEv(ptr noundef nonnull align 8 dereferenceable(24) %0) #2 comdat align 2 {
  %2 = alloca ptr, align 8
  store ptr %0, ptr %2, align 8
  %3 = load ptr, ptr %2, align 8
  ret ptr %3
}

; Function Attrs: mustprogress nounwind uwtable
define linkonce_odr noundef zeroext i1 @_ZN17QArrayDataPointerIDsE5derefEv(ptr noundef nonnull align 8 dereferenceable(24) %0) #2 comdat align 2 {
  %2 = alloca ptr, align 8
  store ptr %0, ptr %2, align 8
  %3 = load ptr, ptr %2, align 8
  %4 = getelementptr inbounds %struct.QArrayDataPointer, ptr %3, i32 0, i32 0
  %5 = load ptr, ptr %4, align 8
  %6 = icmp ne ptr %5, null
  br i1 %6, label %7, label %11

7:                                                ; preds = %1
  %8 = getelementptr inbounds %struct.QArrayDataPointer, ptr %3, i32 0, i32 0
  %9 = load ptr, ptr %8, align 8
  %10 = call noundef zeroext i1 @_ZN10QArrayData5derefEv(ptr noundef nonnull align 8 dereferenceable(16) %9) #3
  br label %11

11:                                               ; preds = %7, %1
  %12 = phi i1 [ true, %1 ], [ %10, %7 ]
  ret i1 %12
}

; Function Attrs: mustprogress nounwind uwtable
define linkonce_odr void @_ZN6QFlagsIN2Qt16KeyboardModifierEEC2E5QFlag(ptr noundef nonnull align 4 dereferenceable(4) %0, i32 %1) unnamed_addr #2 comdat align 2 {
  %3 = alloca %class.QFlag, align 4
  %4 = alloca ptr, align 8
  %5 = getelementptr inbounds %class.QFlag, ptr %3, i32 0, i32 0
  store i32 %1, ptr %5, align 4
  store ptr %0, ptr %4, align 8
  %6 = load ptr, ptr %4, align 8
  %7 = getelementptr inbounds %class.QFlags, ptr %6, i32 0, i32 0
  %8 = call noundef i32 @_ZNK5QFlagcvjEv(ptr noundef nonnull align 4 dereferenceable(4) %3) #3
  store i32 %8, ptr %7, align 4
  ret void
}

; Function Attrs: mustprogress nounwind uwtable
define linkonce_odr void @_ZN5QFlagC2Ej(ptr noundef nonnull align 4 dereferenceable(4) %0, i32 noundef %1) unnamed_addr #2 comdat align 2 {
  %3 = alloca ptr, align 8
  %4 = alloca i32, align 4
  store ptr %0, ptr %3, align 8
  store i32 %1, ptr %4, align 4
  %5 = load ptr, ptr %3, align 8
  %6 = getelementptr inbounds %class.QFlag, ptr %5, i32 0, i32 0
  %7 = load i32, ptr %4, align 4
  store i32 %7, ptr %6, align 4
  ret void
}

; Function Attrs: mustprogress nounwind uwtable
define linkonce_odr void @_ZN17QArrayDataPointerIDsED2Ev(ptr noundef nonnull align 8 dereferenceable(24) %0) unnamed_addr #2 comdat align 2 {
  %2 = alloca ptr, align 8
  store ptr %0, ptr %2, align 8
  %3 = load ptr, ptr %2, align 8
  %4 = call noundef zeroext i1 @_ZN17QArrayDataPointerIDsE5derefEv(ptr noundef nonnull align 8 dereferenceable(24) %3) #3
  br i1 %4, label %9, label %5

5:                                                ; preds = %1
  %6 = call noundef ptr @_ZN17QArrayDataPointerIDsEptEv(ptr noundef nonnull align 8 dereferenceable(24) %3) #3
  call void @_ZN9QtPrivate12QPodArrayOpsIDsE10destroyAllEv(ptr noundef nonnull align 8 dereferenceable(24) %6) #3
  %7 = getelementptr inbounds %struct.QArrayDataPointer, ptr %3, i32 0, i32 0
  %8 = load ptr, ptr %7, align 8
  call void @_ZN15QTypedArrayDataIDsE10deallocateEP10QArrayData(ptr noundef %8) #3
  br label %9

9:                                                ; preds = %5, %1
  ret void
}

; Function Attrs: mustprogress uwtable
define linkonce_odr noundef ptr @_ZNK11QMetaObject4castEP7QObject(ptr noundef nonnull align 8 dereferenceable(56) %0, ptr noundef %1) #1 comdat align 2 {
  %3 = alloca ptr, align 8
  %4 = alloca ptr, align 8
  store ptr %0, ptr %3, align 8
  store ptr %1, ptr %4, align 8
  %5 = load ptr, ptr %3, align 8
  %6 = load ptr, ptr %4, align 8
  %7 = call noundef ptr @_ZNK11QMetaObject4castEPK7QObject(ptr noundef nonnull align 8 dereferenceable(56) %5, ptr noundef %6)
  ret ptr %7
}

; Function Attrs: mustprogress nounwind uwtable
define linkonce_odr noundef zeroext i1 @_ZNK6QFlagsIN2Qt16KeyboardModifierEEntEv(ptr noundef nonnull align 4 dereferenceable(4) %0) #2 comdat align 2 {
  %2 = alloca ptr, align 8
  store ptr %0, ptr %2, align 8
  %3 = load ptr, ptr %2, align 8
  %4 = getelementptr inbounds %class.QFlags, ptr %3, i32 0, i32 0
  %5 = load i32, ptr %4, align 4
  %6 = icmp ne i32 %5, 0
  %7 = xor i1 %6, true
  ret i1 %7
}

; Function Attrs: mustprogress nounwind uwtable
define linkonce_odr i32 @_ZNK6QFlagsIN2Qt16KeyboardModifierEEanES1_(ptr noundef nonnull align 4 dereferenceable(4) %0, i32 noundef %1) #2 comdat align 2 {
  %3 = alloca %class.QFlags, align 4
  %4 = alloca ptr, align 8
  %5 = alloca i32, align 4
  %6 = alloca %class.QFlag, align 4
  store ptr %0, ptr %4, align 8
  store i32 %1, ptr %5, align 4
  %7 = load ptr, ptr %4, align 8
  %8 = getelementptr inbounds %class.QFlags, ptr %7, i32 0, i32 0
  %9 = load i32, ptr %8, align 4
  %10 = load i32, ptr %5, align 4
  %11 = and i32 %9, %10
  call void @_ZN5QFlagC2Ej(ptr noundef nonnull align 4 dereferenceable(4) %6, i32 noundef %11) #3
  %12 = getelementptr inbounds %class.QFlag, ptr %6, i32 0, i32 0
  %13 = load i32, ptr %12, align 4
  call void @_ZN6QFlagsIN2Qt16KeyboardModifierEEC2E5QFlag(ptr noundef nonnull align 4 dereferenceable(4) %3, i32 %13) #3
  %14 = getelementptr inbounds %class.QFlags, ptr %3, i32 0, i32 0
  %15 = load i32, ptr %14, align 4
  ret i32 %15
}

; Function Attrs: mustprogress nounwind uwtable
define linkonce_odr void @_ZN7QStringD2Ev(ptr noundef nonnull align 8 dereferenceable(24) %0) unnamed_addr #2 comdat align 2 {
  %2 = alloca ptr, align 8
  store ptr %0, ptr %2, align 8
  %3 = load ptr, ptr %2, align 8
  %4 = getelementptr inbounds %class.QString, ptr %3, i32 0, i32 0
  call void @_ZN17QArrayDataPointerIDsED2Ev(ptr noundef nonnull align 8 dereferenceable(24) %4) #3
  ret void
}

; Function Attrs: mustprogress nounwind uwtable
define linkonce_odr noundef zeroext i1 @_ZNK7QString7isEmptyEv(ptr noundef nonnull align 8 dereferenceable(24) %0) #2 comdat align 2 {
  %2 = alloca ptr, align 8
  store ptr %0, ptr %2, align 8
  %3 = load ptr, ptr %2, align 8
  %4 = getelementptr inbounds %class.QString, ptr %3, i32 0, i32 0
  %5 = getelementptr inbounds %struct.QArrayDataPointer, ptr %4, i32 0, i32 2
  %6 = load i64, ptr %5, align 8
  %7 = icmp eq i64 %6, 0
  ret i1 %7
}

; Function Attrs: mustprogress uwtable
define linkonce_odr noundef ptr @_Z12qobject_castIP7QActionET_P7QObject(ptr noundef %0) #1 comdat {
  %2 = alloca ptr, align 8
  store ptr %0, ptr %2, align 8
  %3 = load ptr, ptr %2, align 8
  %4 = call noundef ptr @_ZNK11QMetaObject4castEP7QObject(ptr noundef nonnull align 8 dereferenceable(56) @_ZN7QAction16staticMetaObjectE, ptr noundef %3)
  ret ptr %4
}

; Function Attrs: mustprogress uwtable
define void @_ZN17DisplayFilterEdit20applyOrPrepareFilterEv(ptr noundef nonnull align 8 dereferenceable(352) %0) #1 align 2 personality ptr @__gxx_personality_v0 {
  %2 = alloca ptr, align 8
  %3 = alloca ptr, align 8
  %4 = alloca %class.QString, align 8
  %5 = alloca %class.QVariant, align 8
  %6 = alloca i1, align 1
  %7 = alloca ptr, align 8
  %8 = alloca i32, align 4
  %9 = alloca i1, align 1
  %10 = alloca %class.QString, align 8
  %11 = alloca %class.QVariant, align 8
  %12 = alloca %class.QFlags, align 4
  %13 = alloca %class.QFlags, align 4
  store ptr %0, ptr %2, align 8
  %14 = load ptr, ptr %2, align 8
  %15 = call noundef ptr @_ZNK7QObject6senderEv(ptr noundef nonnull align 8 dereferenceable(16) %14)
  %16 = call noundef ptr @_Z12qobject_castIP7QActionET_P7QObject(ptr noundef %15)
  store ptr %16, ptr %3, align 8
  %17 = load ptr, ptr %3, align 8
  %18 = icmp ne ptr %17, null
  store i1 false, ptr %6, align 1
  store i1 false, ptr %9, align 1
  br i1 %18, label %19, label %24

19:                                               ; preds = %1
  %20 = load ptr, ptr %3, align 8
  call void @_ZNK7QObject8propertyEPKc(ptr dead_on_unwind writable sret(%class.QVariant) align 8 %5, ptr noundef nonnull align 8 dereferenceable(16) %20, ptr noundef @.str.25)
  store i1 true, ptr %6, align 1
  invoke void @_ZNK8QVariant8toStringEv(ptr dead_on_unwind writable sret(%class.QString) align 8 %4, ptr noundef nonnull align 8 dereferenceable(32) %5)
          to label %21 unwind label %33

21:                                               ; preds = %19
  store i1 true, ptr %9, align 1
  %22 = invoke noundef zeroext i1 @_ZNK7QString7isEmptyEv(ptr noundef nonnull align 8 dereferenceable(24) %4)
          to label %23 unwind label %37

23:                                               ; preds = %21
  br label %24

24:                                               ; preds = %23, %1
  %25 = phi i1 [ true, %1 ], [ %22, %23 ]
  %26 = load i1, ptr %9, align 1
  br i1 %26, label %27, label %28

27:                                               ; preds = %24
  call void @_ZN7QStringD2Ev(ptr noundef nonnull align 8 dereferenceable(24) %4) #3
  br label %28

28:                                               ; preds = %27, %24
  %29 = load i1, ptr %6, align 1
  br i1 %29, label %30, label %31

30:                                               ; preds = %28
  call void @_ZN8QVariantD1Ev(ptr noundef nonnull align 8 dereferenceable(32) %5) #3
  br label %31

31:                                               ; preds = %30, %28
  br i1 %25, label %32, label %48

32:                                               ; preds = %31
  br label %71

33:                                               ; preds = %19
  %34 = landingpad { ptr, i32 }
          cleanup
  %35 = extractvalue { ptr, i32 } %34, 0
  store ptr %35, ptr %7, align 8
  %36 = extractvalue { ptr, i32 } %34, 1
  store i32 %36, ptr %8, align 4
  br label %44

37:                                               ; preds = %21
  %38 = landingpad { ptr, i32 }
          cleanup
  %39 = extractvalue { ptr, i32 } %38, 0
  store ptr %39, ptr %7, align 8
  %40 = extractvalue { ptr, i32 } %38, 1
  store i32 %40, ptr %8, align 4
  %41 = load i1, ptr %9, align 1
  br i1 %41, label %42, label %43

42:                                               ; preds = %37
  call void @_ZN7QStringD2Ev(ptr noundef nonnull align 8 dereferenceable(24) %4) #3
  br label %43

43:                                               ; preds = %42, %37
  br label %44

44:                                               ; preds = %43, %33
  %45 = load i1, ptr %6, align 1
  br i1 %45, label %46, label %47

46:                                               ; preds = %44
  call void @_ZN8QVariantD1Ev(ptr noundef nonnull align 8 dereferenceable(32) %5) #3
  br label %47

47:                                               ; preds = %46, %44
  br label %72

48:                                               ; preds = %31
  %49 = load ptr, ptr %3, align 8
  call void @_ZNK7QObject8propertyEPKc(ptr dead_on_unwind writable sret(%class.QVariant) align 8 %11, ptr noundef nonnull align 8 dereferenceable(16) %49, ptr noundef @.str.25)
  invoke void @_ZNK8QVariant8toStringEv(ptr dead_on_unwind writable sret(%class.QString) align 8 %10, ptr noundef nonnull align 8 dereferenceable(32) %11)
          to label %50 unwind label %62

50:                                               ; preds = %48
  call void @_ZN8QVariantD1Ev(ptr noundef nonnull align 8 dereferenceable(32) %11) #3
  %51 = getelementptr inbounds %class.DisplayFilterEdit, ptr %14, i32 0, i32 10
  %52 = call noundef nonnull align 8 dereferenceable(24) ptr @_ZN7QStringaSERKS_(ptr noundef nonnull align 8 dereferenceable(24) %51, ptr noundef nonnull align 8 dereferenceable(24) %10) #3
  invoke void @_ZN9QLineEdit7setTextERK7QString(ptr noundef nonnull align 8 dereferenceable(40) %14, ptr noundef nonnull align 8 dereferenceable(24) %10)
          to label %53 unwind label %66

53:                                               ; preds = %50
  %54 = invoke i32 @_ZN15QGuiApplication17keyboardModifiersEv()
          to label %55 unwind label %66

55:                                               ; preds = %53
  %56 = getelementptr inbounds %class.QFlags, ptr %13, i32 0, i32 0
  store i32 %54, ptr %56, align 4
  %57 = call i32 @_ZNK6QFlagsIN2Qt16KeyboardModifierEEanES1_(ptr noundef nonnull align 4 dereferenceable(4) %13, i32 noundef 33554432) #3
  %58 = getelementptr inbounds %class.QFlags, ptr %12, i32 0, i32 0
  store i32 %57, ptr %58, align 4
  %59 = call noundef zeroext i1 @_ZNK6QFlagsIN2Qt16KeyboardModifierEEntEv(ptr noundef nonnull align 4 dereferenceable(4) %12) #3
  br i1 %59, label %60, label %70

60:                                               ; preds = %55
  invoke void @_ZN17DisplayFilterEdit18applyDisplayFilterEv(ptr noundef nonnull align 8 dereferenceable(352) %14)
          to label %61 unwind label %66

61:                                               ; preds = %60
  br label %70

62:                                               ; preds = %48
  %63 = landingpad { ptr, i32 }
          cleanup
  %64 = extractvalue { ptr, i32 } %63, 0
  store ptr %64, ptr %7, align 8
  %65 = extractvalue { ptr, i32 } %63, 1
  store i32 %65, ptr %8, align 4
  call void @_ZN8QVariantD1Ev(ptr noundef nonnull align 8 dereferenceable(32) %11) #3
  br label %72

66:                                               ; preds = %60, %53, %50
  %67 = landingpad { ptr, i32 }
          cleanup
  %68 = extractvalue { ptr, i32 } %67, 0
  store ptr %68, ptr %7, align 8
  %69 = extractvalue { ptr, i32 } %67, 1
  store i32 %69, ptr %8, align 4
  call void @_ZN7QStringD2Ev(ptr noundef nonnull align 8 dereferenceable(24) %10) #3
  br label %72

70:                                               ; preds = %61, %55
  call void @_ZN7QStringD2Ev(ptr noundef nonnull align 8 dereferenceable(24) %10) #3
  br label %71

71:                                               ; preds = %70, %32
  ret void

72:                                               ; preds = %66, %62, %47
  %73 = load ptr, ptr %7, align 8
  %74 = load i32, ptr %8, align 4
  %75 = insertvalue { ptr, i32 } poison, ptr %73, 0
  %76 = insertvalue { ptr, i32 } %75, i32 %74, 1
  resume { ptr, i32 } %76
}