; Function Attrs: mustprogress uwtable
define void @_ZN17DisplayFilterEdit20applyOrPrepareFilterEv(ptr noundef nonnull align 8 dereferenceable(352) %0) #2 align 2 personality ptr @__gxx_personality_v0 {
  %2 = alloca %class.QString, align 8
  %3 = alloca %class.QVariant, align 8
  %4 = alloca %class.QString, align 8
  %5 = alloca %class.QVariant, align 8
  %6 = tail call noundef ptr @_ZNK7QObject6senderEv(ptr noundef nonnull align 8 dereferenceable(16) %0)
  %7 = tail call noundef ptr @_ZNK11QMetaObject4castEPK7QObject(ptr noundef nonnull align 8 dereferenceable(56) @_ZN7QAction16staticMetaObjectE, ptr noundef %6)
  %.not.not = icmp eq ptr %7, null
  br i1 %.not.not, label %_ZN7QStringD2Ev.exit20, label %8

8:                                                ; preds = %1
  call void @_ZNK7QObject8propertyEPKc(ptr dead_on_unwind nonnull writable sret(%class.QVariant) align 8 %3, ptr noundef nonnull align 8 dereferenceable(16) %7, ptr noundef nonnull @.str.25)
  invoke void @_ZNK8QVariant8toStringEv(ptr dead_on_unwind nonnull writable sret(%class.QString) align 8 %2, ptr noundef nonnull align 8 dereferenceable(32) %3)
          to label %9 unwind label %17

9:                                                ; preds = %8
  %10 = getelementptr inbounds i8, ptr %2, i64 16
  %11 = load i64, ptr %10, align 8
  %12 = icmp eq i64 %11, 0
  %13 = load ptr, ptr %2, align 8
  %.not.i.i.i = icmp eq ptr %13, null
  br i1 %.not.i.i.i, label %.critedge, label %_ZN17QArrayDataPointerIDsE5derefEv.exit.i.i

_ZN17QArrayDataPointerIDsE5derefEv.exit.i.i:      ; preds = %9
  %14 = atomicrmw sub ptr %13, i32 1 seq_cst, align 4
  %.not.i.i = icmp eq i32 %14, 1
  br i1 %.not.i.i, label %15, label %.critedge

15:                                               ; preds = %_ZN17QArrayDataPointerIDsE5derefEv.exit.i.i
  %16 = load ptr, ptr %2, align 8
  call void @_ZN10QArrayData10deallocateEPS_xx(ptr noundef %16, i64 noundef 2, i64 noundef 8) #19
  br label %.critedge

.critedge:                                        ; preds = %15, %_ZN17QArrayDataPointerIDsE5derefEv.exit.i.i, %9
  call void @_ZN8QVariantD1Ev(ptr noundef nonnull align 8 dereferenceable(32) %3) #19
  br i1 %12, label %_ZN7QStringD2Ev.exit20, label %19

17:                                               ; preds = %8
  %18 = landingpad { ptr, i32 }
          cleanup
  call void @_ZN8QVariantD1Ev(ptr noundef nonnull align 8 dereferenceable(32) %3) #19
  br label %_ZN7QStringD2Ev.exit16

19:                                               ; preds = %.critedge
  call void @_ZNK7QObject8propertyEPKc(ptr dead_on_unwind nonnull writable sret(%class.QVariant) align 8 %5, ptr noundef nonnull align 8 dereferenceable(16) %7, ptr noundef nonnull @.str.25)
  invoke void @_ZNK8QVariant8toStringEv(ptr dead_on_unwind nonnull writable sret(%class.QString) align 8 %4, ptr noundef nonnull align 8 dereferenceable(32) %5)
          to label %20 unwind label %28

20:                                               ; preds = %19
  call void @_ZN8QVariantD1Ev(ptr noundef nonnull align 8 dereferenceable(32) %5) #19
  %21 = getelementptr inbounds i8, ptr %0, i64 272
  %22 = call noundef nonnull align 8 dereferenceable(24) ptr @_ZN7QStringaSERKS_(ptr noundef nonnull align 8 dereferenceable(24) %21, ptr noundef nonnull align 8 dereferenceable(24) %4) #19
  invoke void @_ZN9QLineEdit7setTextERK7QString(ptr noundef nonnull align 8 dereferenceable(40) %0, ptr noundef nonnull align 8 dereferenceable(24) %4)
          to label %23 unwind label %30

23:                                               ; preds = %20
  %24 = invoke i32 @_ZN15QGuiApplication17keyboardModifiersEv()
          to label %25 unwind label %30

25:                                               ; preds = %23
  %26 = and i32 %24, 33554432
  %.not.i = icmp eq i32 %26, 0
  br i1 %.not.i, label %27, label %36

27:                                               ; preds = %25
  invoke void @_ZN17DisplayFilterEdit18applyDisplayFilterEv(ptr noundef nonnull align 8 dereferenceable(352) %0)
          to label %36 unwind label %30

28:                                               ; preds = %19
  %29 = landingpad { ptr, i32 }
          cleanup
  call void @_ZN8QVariantD1Ev(ptr noundef nonnull align 8 dereferenceable(32) %5) #19
  br label %_ZN7QStringD2Ev.exit16

30:                                               ; preds = %27, %23, %20
  %31 = landingpad { ptr, i32 }
          cleanup
  %32 = load ptr, ptr %4, align 8
  %.not.i.i.i13 = icmp eq ptr %32, null
  br i1 %.not.i.i.i13, label %_ZN7QStringD2Ev.exit16, label %_ZN17QArrayDataPointerIDsE5derefEv.exit.i.i14

_ZN17QArrayDataPointerIDsE5derefEv.exit.i.i14:    ; preds = %30
  %33 = atomicrmw sub ptr %32, i32 1 seq_cst, align 4
  %.not.i.i15 = icmp eq i32 %33, 1
  br i1 %.not.i.i15, label %34, label %_ZN7QStringD2Ev.exit16

34:                                               ; preds = %_ZN17QArrayDataPointerIDsE5derefEv.exit.i.i14
  %35 = load ptr, ptr %4, align 8
  call void @_ZN10QArrayData10deallocateEPS_xx(ptr noundef %35, i64 noundef 2, i64 noundef 8) #19
  br label %_ZN7QStringD2Ev.exit16

36:                                               ; preds = %27, %25
  %37 = load ptr, ptr %4, align 8
  %.not.i.i.i17 = icmp eq ptr %37, null
  br i1 %.not.i.i.i17, label %_ZN7QStringD2Ev.exit20, label %_ZN17QArrayDataPointerIDsE5derefEv.exit.i.i18

_ZN17QArrayDataPointerIDsE5derefEv.exit.i.i18:    ; preds = %36
  %38 = atomicrmw sub ptr %37, i32 1 seq_cst, align 4
  %.not.i.i19 = icmp eq i32 %38, 1
  br i1 %.not.i.i19, label %39, label %_ZN7QStringD2Ev.exit20

39:                                               ; preds = %_ZN17QArrayDataPointerIDsE5derefEv.exit.i.i18
  %40 = load ptr, ptr %4, align 8
  call void @_ZN10QArrayData10deallocateEPS_xx(ptr noundef %40, i64 noundef 2, i64 noundef 8) #19
  br label %_ZN7QStringD2Ev.exit20

_ZN7QStringD2Ev.exit20:                           ; preds = %1, %39, %_ZN17QArrayDataPointerIDsE5derefEv.exit.i.i18, %36, %.critedge
  ret void

_ZN7QStringD2Ev.exit16:                           ; preds = %34, %_ZN17QArrayDataPointerIDsE5derefEv.exit.i.i14, %30, %17, %28
  %.pn = phi { ptr, i32 } [ %29, %28 ], [ %18, %17 ], [ %31, %30 ], [ %31, %_ZN17QArrayDataPointerIDsE5derefEv.exit.i.i14 ], [ %31, %34 ]
  resume { ptr, i32 } %.pn
}